; Function Attrs: mustprogress uwtable
define internal void @_ZN4absl18debugging_internal12_GLOBAL__N_138DemangleRegression_NegativeLength_Test8TestBodyEv(ptr nonnull readnone align 8 captures(none) %0) unnamed_addr #4 align 2 personality ptr @__gxx_personality_v0 {
  %2 = tail call noalias noundef nonnull dereferenceable(1048576) ptr @_Znam(i64 noundef 1048576) #28, !noalias !93
  tail call void @llvm.memset.p0.i64(ptr noundef nonnull align 1 dereferenceable(1048576) %2, i8 0, i64 1048576, i1 false), !noalias !93
  %3 = invoke noundef zeroext i1 @_ZN4absl18debugging_internal8DemangleEPKcPcm(ptr noundef nonnull @.str.744, ptr noundef nonnull %2, i64 noundef 1048576)
          to label %_ZN4absl18debugging_internal12_GLOBAL__N_111TestOnInputEPKc.exit unwind label %_ZNSt10unique_ptrIA_cSt14default_deleteIS0_EED2Ev.exit4.i

_ZNSt10unique_ptrIA_cSt14default_deleteIS0_EED2Ev.exit4.i: ; preds = %1
  %4 = landingpad { ptr, i32 }
          cleanup
  tail call void @_ZdaPv(ptr noundef nonnull %2) #27
  resume { ptr, i32 } %4

_ZN4absl18debugging_internal12_GLOBAL__N_111TestOnInputEPKc.exit: ; preds = %1
  tail call void @_ZdaPv(ptr noundef nonnull %2) #27
  ret void
}